target datalayout = "e-m:e-p270:32:32-p271:32:32-p272:64:64-i64:64-i128:128-f80:128-n8:16:32:64-S128"
target triple = "x86_64-pc-linux-gnu"

%"class.std::__1::ios_base" = type { ptr, i32, i64, i64, i32, i32, ptr, ptr, ptr, ptr, i64, i64, ptr, i64, i64, ptr, i64, i64 }

; Function Attrs: mustprogress uwtable
define dso_local void @_ZNSt3__18ios_base16__call_callbacksENS0_5eventE(ptr noundef nonnull align 8 dereferenceable(136) %0, i32 noundef %1) #1 align 2 {
  %3 = alloca ptr, align 8
  %4 = alloca i32, align 4
  %5 = alloca i64, align 8
  store ptr %0, ptr %3, align 8, !tbaa !27
  store i32 %1, ptr %4, align 4, !tbaa !29
  %6 = load ptr, ptr %3, align 8
  call void @llvm.lifetime.start.p0(i64 8, ptr %5) #3
  %7 = getelementptr inbounds nuw %"class.std::__1::ios_base", ptr %6, i32 0, i32 10
  %8 = load i64, ptr %7, align 8, !tbaa !31
  store i64 %8, ptr %5, align 8, !tbaa !37
  br label %9

9:                                                ; preds = %13, %2
  %10 = load i64, ptr %5, align 8, !tbaa !37
  %11 = icmp ne i64 %10, 0
  br i1 %11, label %13, label %12

12:                                               ; preds = %9
  call void @llvm.lifetime.end.p0(i64 8, ptr %5) #3
  br label %27

13:                                               ; preds = %9
  %14 = load i64, ptr %5, align 8, !tbaa !37
  %15 = add i64 %14, -1
  store i64 %15, ptr %5, align 8, !tbaa !37
  %16 = getelementptr inbounds nuw %"class.std::__1::ios_base", ptr %6, i32 0, i32 8
  %17 = load ptr, ptr %16, align 8, !tbaa !38
  %18 = load i64, ptr %5, align 8, !tbaa !37
  %19 = getelementptr inbounds nuw ptr, ptr %17, i64 %18
  %20 = load ptr, ptr %19, align 8, !tbaa !39
  %21 = load i32, ptr %4, align 4, !tbaa !29
  %22 = getelementptr inbounds nuw %"class.std::__1::ios_base", ptr %6, i32 0, i32 9
  %23 = load ptr, ptr %22, align 8, !tbaa !40
  %24 = load i64, ptr %5, align 8, !tbaa !37
  %25 = getelementptr inbounds nuw i32, ptr %23, i64 %24
  %26 = load i32, ptr %25, align 4, !tbaa !9
  call void %20(i32 noundef %21, ptr noundef nonnull align 8 dereferenceable(136) %6, i32 noundef %26)
  br label %9, !llvm.loop !41

27:                                               ; preds = %12
  ret void
}