; Function Attrs: mustprogress uwtable
define dso_local void @_ZNSt3__18ios_base16__call_callbacksENS0_5eventE(ptr noundef nonnull align 8 dereferenceable(136) %0, i32 noundef %1) local_unnamed_addr #1 align 2 {
  %3 = getelementptr inbounds nuw i8, ptr %0, i64 72
  %4 = load i64, ptr %3, align 8, !tbaa !15
  %.not5 = icmp eq i64 %4, 0
  br i1 %.not5, label %._crit_edge, label %.lr.ph

.lr.ph:                                           ; preds = %2
  %5 = getelementptr inbounds nuw i8, ptr %0, i64 56
  %6 = getelementptr inbounds nuw i8, ptr %0, i64 64
  br label %7

._crit_edge:                                      ; preds = %7, %2
  ret void

7:                                                ; preds = %.lr.ph, %7
  %.06 = phi i64 [ %4, %.lr.ph ], [ %8, %7 ]
  %8 = add i64 %.06, -1
  %9 = load ptr, ptr %5, align 8, !tbaa !21
  %10 = getelementptr inbounds nuw ptr, ptr %9, i64 %8
  %11 = load ptr, ptr %10, align 8, !tbaa !22
  %12 = load ptr, ptr %6, align 8, !tbaa !23
  %13 = getelementptr inbounds nuw i32, ptr %12, i64 %8
  %14 = load i32, ptr %13, align 4, !tbaa !8
  tail call void %11(i32 noundef %1, ptr noundef nonnull align 8 dereferenceable(136) %0, i32 noundef %14)
  %.not = icmp eq i64 %8, 0
  br i1 %.not, label %._crit_edge, label %7, !llvm.loop !24
}